target datalayout = "e-m:e-p270:32:32-p271:32:32-p272:64:64-i64:64-i128:128-f80:128-n8:16:32:64-S128"
target triple = "x86_64-pc-linux-gnu"

%struct.lean_object = type { i32, i32 }
%struct.lean_ctor_object = type { %struct.lean_object, [0 x ptr] }

; Function Attrs: inlinehint nounwind uwtable
define internal zeroext i1 @lean_is_st(ptr noundef %0) #0 {
  %2 = alloca ptr, align 8
  store ptr %0, ptr %2, align 8, !tbaa !4
  %3 = load ptr, ptr %2, align 8, !tbaa !4
  %4 = getelementptr inbounds nuw %struct.lean_object, ptr %3, i32 0, i32 0
  %5 = load i32, ptr %4, align 4, !tbaa !13
  %6 = icmp sgt i32 %5, 0
  ret i1 %6
}

; Function Attrs: inlinehint nounwind uwtable
define internal ptr @lean_to_ctor(ptr noundef %0) #0 {
  %2 = alloca ptr, align 8
  store ptr %0, ptr %2, align 8, !tbaa !4
  %3 = load ptr, ptr %2, align 8, !tbaa !4
  ret ptr %3
}

; Function Attrs: alwaysinline nounwind uwtable
define internal void @lean_dec_ref(ptr noundef %0) #1 {
  %2 = alloca ptr, align 8
  store ptr %0, ptr %2, align 8, !tbaa !4
  %3 = load ptr, ptr %2, align 8, !tbaa !4
  %4 = getelementptr inbounds nuw %struct.lean_object, ptr %3, i32 0, i32 0
  %5 = load i32, ptr %4, align 4, !tbaa !13
  %6 = icmp sgt i32 %5, 1
  %7 = zext i1 %6 to i32
  %8 = sext i32 %7 to i64
  %9 = call i64 @llvm.expect.i64(i64 %8, i64 1)
  %10 = icmp ne i64 %9, 0
  br i1 %10, label %11, label %16

11:                                               ; preds = %1
  %12 = load ptr, ptr %2, align 8, !tbaa !4
  %13 = getelementptr inbounds nuw %struct.lean_object, ptr %12, i32 0, i32 0
  %14 = load i32, ptr %13, align 4, !tbaa !13
  %15 = add i32 %14, -1
  store i32 %15, ptr %13, align 4, !tbaa !13
  br label %24

16:                                               ; preds = %1
  %17 = load ptr, ptr %2, align 8, !tbaa !4
  %18 = getelementptr inbounds nuw %struct.lean_object, ptr %17, i32 0, i32 0
  %19 = load i32, ptr %18, align 4, !tbaa !13
  %20 = icmp ne i32 %19, 0
  br i1 %20, label %21, label %23

21:                                               ; preds = %16
  %22 = load ptr, ptr %2, align 8, !tbaa !4
  call void @lean_dec_ref_cold(ptr noundef %22)
  br label %23

23:                                               ; preds = %21, %16
  br label %24

24:                                               ; preds = %23, %11
  ret void
}

; Function Attrs: inlinehint nounwind uwtable
define internal void @lean_inc_ref(ptr noundef %0) #0 {
  %2 = alloca ptr, align 8
  store ptr %0, ptr %2, align 8, !tbaa !4
  %3 = load ptr, ptr %2, align 8, !tbaa !4
  %4 = call zeroext i1 @lean_is_st(ptr noundef %3)
  %5 = zext i1 %4 to i64
  %6 = call i64 @llvm.expect.i64(i64 %5, i64 1)
  %7 = icmp ne i64 %6, 0
  br i1 %7, label %8, label %13

8:                                                ; preds = %1
  %9 = load ptr, ptr %2, align 8, !tbaa !4
  %10 = getelementptr inbounds nuw %struct.lean_object, ptr %9, i32 0, i32 0
  %11 = load i32, ptr %10, align 4, !tbaa !13
  %12 = add i32 %11, 1
  store i32 %12, ptr %10, align 4, !tbaa !13
  br label %21

13:                                               ; preds = %1
  %14 = load ptr, ptr %2, align 8, !tbaa !4
  %15 = getelementptr inbounds nuw %struct.lean_object, ptr %14, i32 0, i32 0
  %16 = load i32, ptr %15, align 4, !tbaa !13
  %17 = icmp ne i32 %16, 0
  br i1 %17, label %18, label %20

18:                                               ; preds = %13
  %19 = load ptr, ptr %2, align 8, !tbaa !4
  call void @lean_inc_ref_cold(ptr noundef %19)
  br label %20

20:                                               ; preds = %18, %13
  br label %21

21:                                               ; preds = %20, %8
  ret void
}

; Function Attrs: alwaysinline nounwind uwtable
define internal zeroext i1 @lean_is_scalar(ptr noundef %0) #1 {
  %2 = alloca ptr, align 8
  store ptr %0, ptr %2, align 8, !tbaa !4
  %3 = load ptr, ptr %2, align 8, !tbaa !4
  %4 = ptrtoint ptr %3 to i64
  %5 = and i64 %4, 1
  %6 = icmp eq i64 %5, 1
  ret i1 %6
}

; Function Attrs: inlinehint nounwind uwtable
define internal ptr @lean_ctor_obj_cptr(ptr noundef %0) #0 {
  %2 = alloca ptr, align 8
  store ptr %0, ptr %2, align 8, !tbaa !4
  %3 = load ptr, ptr %2, align 8, !tbaa !4
  %4 = call ptr @lean_to_ctor(ptr noundef %3)
  %5 = getelementptr inbounds nuw %struct.lean_ctor_object, ptr %4, i32 0, i32 1
  %6 = getelementptr inbounds [0 x ptr], ptr %5, i64 0, i64 0
  ret ptr %6
}

; Function Attrs: alwaysinline nounwind uwtable
define internal void @lean_dec(ptr noundef %0) #1 {
  %2 = alloca ptr, align 8
  store ptr %0, ptr %2, align 8, !tbaa !4
  %3 = load ptr, ptr %2, align 8, !tbaa !4
  %4 = call zeroext i1 @lean_is_scalar(ptr noundef %3)
  br i1 %4, label %7, label %5

5:                                                ; preds = %1
  %6 = load ptr, ptr %2, align 8, !tbaa !4
  call void @lean_dec_ref(ptr noundef %6)
  br label %7

7:                                                ; preds = %5, %1
  ret void
}

; Function Attrs: alwaysinline nounwind uwtable
define internal void @lean_inc(ptr noundef %0) #1 {
  %2 = alloca ptr, align 8
  store ptr %0, ptr %2, align 8, !tbaa !4
  %3 = load ptr, ptr %2, align 8, !tbaa !4
  %4 = call zeroext i1 @lean_is_scalar(ptr noundef %3)
  br i1 %4, label %7, label %5

5:                                                ; preds = %1
  %6 = load ptr, ptr %2, align 8, !tbaa !4
  call void @lean_inc_ref(ptr noundef %6)
  br label %7

7:                                                ; preds = %5, %1
  ret void
}

; Function Attrs: inlinehint nounwind uwtable
define internal ptr @lean_ctor_get(ptr noundef %0, i32 noundef %1) #0 {
  %3 = alloca ptr, align 8
  %4 = alloca i32, align 4
  store ptr %0, ptr %3, align 8, !tbaa !4
  store i32 %1, ptr %4, align 4, !tbaa !11
  %5 = load ptr, ptr %3, align 8, !tbaa !4
  %6 = call ptr @lean_ctor_obj_cptr(ptr noundef %5)
  %7 = load i32, ptr %4, align 4, !tbaa !11
  %8 = zext i32 %7 to i64
  %9 = getelementptr inbounds nuw ptr, ptr %6, i64 %8
  %10 = load ptr, ptr %9, align 8, !tbaa !4
  ret ptr %10
}

; Function Attrs: nounwind uwtable
define ptr @l_Lean_PrettyPrinter_Parenthesizer_withAntiquot_parenthesizer(ptr noundef %0, ptr noundef %1, ptr noundef %2, ptr noundef %3, ptr noundef %4, ptr noundef %5, ptr noundef %6) #2 {
  %8 = alloca ptr, align 8
  %9 = alloca ptr, align 8
  %10 = alloca ptr, align 8
  %11 = alloca ptr, align 8
  %12 = alloca ptr, align 8
  %13 = alloca ptr, align 8
  %14 = alloca ptr, align 8
  %15 = alloca ptr, align 8
  %16 = alloca ptr, align 8
  %17 = alloca ptr, align 8
  %18 = alloca ptr, align 8
  %19 = alloca i8, align 1
  %20 = alloca i8, align 1
  %21 = alloca ptr, align 8
  %22 = alloca i32, align 4
  %23 = alloca ptr, align 8
  %24 = alloca ptr, align 8
  store ptr %0, ptr %9, align 8, !tbaa !4
  store ptr %1, ptr %10, align 8, !tbaa !4
  store ptr %2, ptr %11, align 8, !tbaa !4
  store ptr %3, ptr %12, align 8, !tbaa !4
  store ptr %4, ptr %13, align 8, !tbaa !4
  store ptr %5, ptr %14, align 8, !tbaa !4
  store ptr %6, ptr %15, align 8, !tbaa !4
  br label %25

25:                                               ; preds = %7
  call void @llvm.lifetime.start.p0(i64 8, ptr %16) #8
  call void @llvm.lifetime.start.p0(i64 8, ptr %17) #8
  call void @llvm.lifetime.start.p0(i64 8, ptr %18) #8
  call void @llvm.lifetime.start.p0(i64 1, ptr %19) #8
  %26 = load ptr, ptr %12, align 8, !tbaa !4
  %27 = load ptr, ptr %13, align 8, !tbaa !4
  %28 = load ptr, ptr %14, align 8, !tbaa !4
  %29 = load ptr, ptr %15, align 8, !tbaa !4
  %30 = call ptr @l_Lean_Syntax_MonadTraverser_getCur___at_Lean_PrettyPrinter_Parenthesizer_visitArgs___spec__1___rarg(ptr noundef %26, ptr noundef %27, ptr noundef %28, ptr noundef %29)
  store ptr %30, ptr %16, align 8, !tbaa !4
  %31 = load ptr, ptr %16, align 8, !tbaa !4
  %32 = call ptr @lean_ctor_get(ptr noundef %31, i32 noundef 0)
  store ptr %32, ptr %17, align 8, !tbaa !4
  %33 = load ptr, ptr %17, align 8, !tbaa !4
  call void @lean_inc(ptr noundef %33)
  %34 = load ptr, ptr %16, align 8, !tbaa !4
  %35 = call ptr @lean_ctor_get(ptr noundef %34, i32 noundef 1)
  store ptr %35, ptr %18, align 8, !tbaa !4
  %36 = load ptr, ptr %18, align 8, !tbaa !4
  call void @lean_inc(ptr noundef %36)
  %37 = load ptr, ptr %16, align 8, !tbaa !4
  call void @lean_dec(ptr noundef %37)
  %38 = load ptr, ptr %17, align 8, !tbaa !4
  %39 = call zeroext i8 @l_Lean_Syntax_isAntiquot(ptr noundef %38)
  store i8 %39, ptr %19, align 1, !tbaa !10
  %40 = load i8, ptr %19, align 1, !tbaa !10
  %41 = zext i8 %40 to i32
  %42 = icmp eq i32 %41, 0
  br i1 %42, label %43, label %71

43:                                               ; preds = %25
  call void @llvm.lifetime.start.p0(i64 1, ptr %20) #8
  %44 = load ptr, ptr %17, align 8, !tbaa !4
  %45 = call zeroext i8 @l_Lean_Syntax_isAntiquotSplice(ptr noundef %44)
  store i8 %45, ptr %20, align 1, !tbaa !10
  %46 = load ptr, ptr %17, align 8, !tbaa !4
  call void @lean_dec(ptr noundef %46)
  %47 = load i8, ptr %20, align 1, !tbaa !10
  %48 = zext i8 %47 to i32
  %49 = icmp eq i32 %48, 0
  br i1 %49, label %50, label %60

50:                                               ; preds = %43
  call void @llvm.lifetime.start.p0(i64 8, ptr %21) #8
  %51 = load ptr, ptr %9, align 8, !tbaa !4
  call void @lean_dec(ptr noundef %51)
  %52 = load ptr, ptr %10, align 8, !tbaa !4
  %53 = load ptr, ptr %11, align 8, !tbaa !4
  %54 = load ptr, ptr %12, align 8, !tbaa !4
  %55 = load ptr, ptr %13, align 8, !tbaa !4
  %56 = load ptr, ptr %14, align 8, !tbaa !4
  %57 = load ptr, ptr %18, align 8, !tbaa !4
  %58 = call ptr @lean_apply_5(ptr noundef %52, ptr noundef %53, ptr noundef %54, ptr noundef %55, ptr noundef %56, ptr noundef %57)
  store ptr %58, ptr %21, align 8, !tbaa !4
  %59 = load ptr, ptr %21, align 8, !tbaa !4
  store ptr %59, ptr %8, align 8
  store i32 1, ptr %22, align 4
  call void @llvm.lifetime.end.p0(i64 8, ptr %21) #8
  br label %70

60:                                               ; preds = %43
  call void @llvm.lifetime.start.p0(i64 8, ptr %23) #8
  %61 = load ptr, ptr %9, align 8, !tbaa !4
  %62 = load ptr, ptr %10, align 8, !tbaa !4
  %63 = load ptr, ptr %11, align 8, !tbaa !4
  %64 = load ptr, ptr %12, align 8, !tbaa !4
  %65 = load ptr, ptr %13, align 8, !tbaa !4
  %66 = load ptr, ptr %14, align 8, !tbaa !4
  %67 = load ptr, ptr %18, align 8, !tbaa !4
  %68 = call ptr @l_Lean_PrettyPrinter_Parenthesizer_orelse_parenthesizer(ptr noundef %61, ptr noundef %62, ptr noundef %63, ptr noundef %64, ptr noundef %65, ptr noundef %66, ptr noundef %67)
  store ptr %68, ptr %23, align 8, !tbaa !4
  %69 = load ptr, ptr %23, align 8, !tbaa !4
  store ptr %69, ptr %8, align 8
  store i32 1, ptr %22, align 4
  call void @llvm.lifetime.end.p0(i64 8, ptr %23) #8
  br label %70

70:                                               ; preds = %60, %50
  call void @llvm.lifetime.end.p0(i64 1, ptr %20) #8
  br label %82

71:                                               ; preds = %25
  call void @llvm.lifetime.start.p0(i64 8, ptr %24) #8
  %72 = load ptr, ptr %17, align 8, !tbaa !4
  call void @lean_dec(ptr noundef %72)
  %73 = load ptr, ptr %9, align 8, !tbaa !4
  %74 = load ptr, ptr %10, align 8, !tbaa !4
  %75 = load ptr, ptr %11, align 8, !tbaa !4
  %76 = load ptr, ptr %12, align 8, !tbaa !4
  %77 = load ptr, ptr %13, align 8, !tbaa !4
  %78 = load ptr, ptr %14, align 8, !tbaa !4
  %79 = load ptr, ptr %18, align 8, !tbaa !4
  %80 = call ptr @l_Lean_PrettyPrinter_Parenthesizer_orelse_parenthesizer(ptr noundef %73, ptr noundef %74, ptr noundef %75, ptr noundef %76, ptr noundef %77, ptr noundef %78, ptr noundef %79)
  store ptr %80, ptr %24, align 8, !tbaa !4
  %81 = load ptr, ptr %24, align 8, !tbaa !4
  store ptr %81, ptr %8, align 8
  store i32 1, ptr %22, align 4
  call void @llvm.lifetime.end.p0(i64 8, ptr %24) #8
  br label %82

82:                                               ; preds = %71, %70
  call void @llvm.lifetime.end.p0(i64 1, ptr %19) #8
  call void @llvm.lifetime.end.p0(i64 8, ptr %18) #8
  call void @llvm.lifetime.end.p0(i64 8, ptr %17) #8
  call void @llvm.lifetime.end.p0(i64 8, ptr %16) #8
  %83 = load ptr, ptr %8, align 8
  ret ptr %83
}