; Function Attrs: nounwind uwtable
define ptr @l_Lean_PrettyPrinter_Parenthesizer_withAntiquot_parenthesizer(ptr noundef %0, ptr noundef %1, ptr noundef %2, ptr noundef %3, ptr noundef %4, ptr noundef %5, ptr noundef %6) local_unnamed_addr #0 {
  %8 = tail call ptr @l_Lean_Syntax_MonadTraverser_getCur___at_Lean_PrettyPrinter_Parenthesizer_visitArgs___spec__1___rarg(ptr noundef %3, ptr poison, ptr poison, ptr noundef %6)
  %9 = getelementptr inbounds nuw i8, ptr %8, i64 8
  %10 = load ptr, ptr %9, align 8, !tbaa !4
  %11 = ptrtoint ptr %10 to i64
  %12 = and i64 %11, 1
  %.not = icmp eq i64 %12, 0
  br i1 %.not, label %13, label %lean_inc.exit39

13:                                               ; preds = %7
  %.val.i = load i32, ptr %10, align 4, !tbaa !8
  %14 = icmp sgt i32 %.val.i, 0
  br i1 %14, label %15, label %17, !prof !11

15:                                               ; preds = %13
  %16 = add nuw i32 %.val.i, 1
  store i32 %16, ptr %10, align 4, !tbaa !8
  br label %lean_inc.exit39

17:                                               ; preds = %13
  %.not.i49 = icmp eq i32 %.val.i, 0
  br i1 %.not.i49, label %lean_inc.exit39, label %18

18:                                               ; preds = %17
  tail call void @lean_inc_ref_cold(ptr noundef nonnull %10) #6
  br label %lean_inc.exit39

lean_inc.exit39:                                  ; preds = %18, %17, %15, %7
  %19 = getelementptr inbounds nuw i8, ptr %8, i64 16
  %20 = load ptr, ptr %19, align 8, !tbaa !4
  %21 = ptrtoint ptr %20 to i64
  %22 = and i64 %21, 1
  %.not53 = icmp eq i64 %22, 0
  br i1 %.not53, label %23, label %lean_inc.exit

23:                                               ; preds = %lean_inc.exit39
  %.val.i50 = load i32, ptr %20, align 4, !tbaa !8
  %24 = icmp sgt i32 %.val.i50, 0
  br i1 %24, label %25, label %27, !prof !11

25:                                               ; preds = %23
  %26 = add nuw i32 %.val.i50, 1
  store i32 %26, ptr %20, align 4, !tbaa !8
  br label %lean_inc.exit

27:                                               ; preds = %23
  %.not.i51 = icmp eq i32 %.val.i50, 0
  br i1 %.not.i51, label %lean_inc.exit, label %28

28:                                               ; preds = %27
  tail call void @lean_inc_ref_cold(ptr noundef nonnull %20) #6
  br label %lean_inc.exit

lean_inc.exit:                                    ; preds = %28, %27, %25, %lean_inc.exit39
  %29 = ptrtoint ptr %8 to i64
  %30 = and i64 %29, 1
  %.not54 = icmp eq i64 %30, 0
  br i1 %.not54, label %31, label %lean_dec.exit42

31:                                               ; preds = %lean_inc.exit
  %32 = load i32, ptr %8, align 4, !tbaa !8
  %33 = icmp sgt i32 %32, 1
  br i1 %33, label %34, label %36, !prof !11

34:                                               ; preds = %31
  %35 = add nsw i32 %32, -1
  store i32 %35, ptr %8, align 4, !tbaa !8
  br label %lean_dec.exit42

36:                                               ; preds = %31
  %.not.i = icmp eq i32 %32, 0
  br i1 %.not.i, label %lean_dec.exit42, label %37

37:                                               ; preds = %36
  tail call void @lean_dec_ref_cold(ptr noundef nonnull %8) #6
  br label %lean_dec.exit42

lean_dec.exit42:                                  ; preds = %37, %36, %34, %lean_inc.exit
  %38 = tail call zeroext i8 @l_Lean_Syntax_isAntiquot(ptr noundef %10) #6
  %39 = icmp eq i8 %38, 0
  br i1 %39, label %40, label %63

40:                                               ; preds = %lean_dec.exit42
  %41 = tail call zeroext i8 @l_Lean_Syntax_isAntiquotSplice(ptr noundef %10) #6
  br i1 %.not, label %42, label %lean_dec.exit41

42:                                               ; preds = %40
  %43 = load i32, ptr %10, align 4, !tbaa !8
  %44 = icmp sgt i32 %43, 1
  br i1 %44, label %45, label %47, !prof !11

45:                                               ; preds = %42
  %46 = add nsw i32 %43, -1
  store i32 %46, ptr %10, align 4, !tbaa !8
  br label %lean_dec.exit41

47:                                               ; preds = %42
  %.not.i43 = icmp eq i32 %43, 0
  br i1 %.not.i43, label %lean_dec.exit41, label %48

48:                                               ; preds = %47
  tail call void @lean_dec_ref_cold(ptr noundef nonnull %10) #6
  br label %lean_dec.exit41

lean_dec.exit41:                                  ; preds = %48, %47, %45, %40
  %49 = icmp eq i8 %41, 0
  br i1 %49, label %50, label %61

50:                                               ; preds = %lean_dec.exit41
  %51 = ptrtoint ptr %0 to i64
  %52 = and i64 %51, 1
  %.not55 = icmp eq i64 %52, 0
  br i1 %.not55, label %53, label %lean_dec.exit40

53:                                               ; preds = %50
  %54 = load i32, ptr %0, align 4, !tbaa !8
  %55 = icmp sgt i32 %54, 1
  br i1 %55, label %56, label %58, !prof !11

56:                                               ; preds = %53
  %57 = add nsw i32 %54, -1
  store i32 %57, ptr %0, align 4, !tbaa !8
  br label %lean_dec.exit40

58:                                               ; preds = %53
  %.not.i45 = icmp eq i32 %54, 0
  br i1 %.not.i45, label %lean_dec.exit40, label %59

59:                                               ; preds = %58
  tail call void @lean_dec_ref_cold(ptr noundef nonnull %0) #6
  br label %lean_dec.exit40

lean_dec.exit40:                                  ; preds = %59, %58, %56, %50
  %60 = tail call ptr @lean_apply_5(ptr noundef %1, ptr noundef %2, ptr noundef %3, ptr noundef %4, ptr noundef %5, ptr noundef %20) #6
  br label %72

61:                                               ; preds = %lean_dec.exit41
  %62 = tail call ptr @l_Lean_PrettyPrinter_Parenthesizer_orelse_parenthesizer(ptr noundef %0, ptr noundef %1, ptr noundef %2, ptr noundef %3, ptr noundef %4, ptr noundef %5, ptr noundef %20)
  br label %72

63:                                               ; preds = %lean_dec.exit42
  br i1 %.not, label %64, label %lean_dec.exit

64:                                               ; preds = %63
  %65 = load i32, ptr %10, align 4, !tbaa !8
  %66 = icmp sgt i32 %65, 1
  br i1 %66, label %67, label %69, !prof !11

67:                                               ; preds = %64
  %68 = add nsw i32 %65, -1
  store i32 %68, ptr %10, align 4, !tbaa !8
  br label %lean_dec.exit

69:                                               ; preds = %64
  %.not.i47 = icmp eq i32 %65, 0
  br i1 %.not.i47, label %lean_dec.exit, label %70

70:                                               ; preds = %69
  tail call void @lean_dec_ref_cold(ptr noundef nonnull %10) #6
  br label %lean_dec.exit

lean_dec.exit:                                    ; preds = %70, %69, %67, %63
  %71 = tail call ptr @l_Lean_PrettyPrinter_Parenthesizer_orelse_parenthesizer(ptr noundef %0, ptr noundef %1, ptr noundef %2, ptr noundef %3, ptr noundef %4, ptr noundef %5, ptr noundef %20)
  br label %72

72:                                               ; preds = %lean_dec.exit40, %61, %lean_dec.exit
  %.1 = phi ptr [ %71, %lean_dec.exit ], [ %60, %lean_dec.exit40 ], [ %62, %61 ]
  ret ptr %.1
}